; Function Attrs: mustprogress uwtable
define hidden void @_ZN17opencv_tensorflow18FunctionDefLibrary5ClearEv(ptr noundef nonnull align 8 dereferenceable(72) %0) unnamed_addr #3 align 2 personality ptr @__gxx_personality_v0 {
  %2 = getelementptr inbounds nuw i8, ptr %0, i64 16
  tail call void @_ZN6google8protobuf8internal20RepeatedPtrFieldBase5ClearINS0_16RepeatedPtrFieldIN17opencv_tensorflow11FunctionDefEE11TypeHandlerEEEvv(ptr noundef nonnull align 8 dereferenceable(24) %2)
  %3 = getelementptr inbounds nuw i8, ptr %0, i64 48
  %4 = load i32, ptr %3, align 8, !tbaa !20
  %5 = icmp sgt i32 %4, 0
  br i1 %5, label %6, label %_ZN6google8protobuf16RepeatedPtrFieldIN17opencv_tensorflow11GradientDefEE5ClearEv.exit

6:                                                ; preds = %1
  %7 = getelementptr inbounds nuw i8, ptr %0, i64 56
  %8 = load ptr, ptr %7, align 8, !tbaa !16
  %9 = getelementptr inbounds nuw i8, ptr %8, i64 8
  %wide.trip.count.i.i = zext nneg i32 %4 to i64
  br label %10

10:                                               ; preds = %_ZN6google8protobuf8internal18GenericTypeHandlerIN17opencv_tensorflow11GradientDefEE5ClearEPS4_.exit.i.i, %6
  %indvars.iv.i.i = phi i64 [ %indvars.iv.next.i.i, %_ZN6google8protobuf8internal18GenericTypeHandlerIN17opencv_tensorflow11GradientDefEE5ClearEPS4_.exit.i.i ], [ 0, %6 ]
  %indvars.iv.next.i.i = add nuw nsw i64 %indvars.iv.i.i, 1
  %11 = getelementptr inbounds nuw ptr, ptr %9, i64 %indvars.iv.i.i
  %12 = load ptr, ptr %11, align 8, !tbaa !25
  %13 = getelementptr inbounds nuw i8, ptr %12, i64 16
  tail call void @_ZN6google8protobuf8internal14ArenaStringPtr12ClearToEmptyEv(ptr noundef nonnull align 8 dereferenceable(8) %13)
  %14 = getelementptr inbounds nuw i8, ptr %12, i64 24
  tail call void @_ZN6google8protobuf8internal14ArenaStringPtr12ClearToEmptyEv(ptr noundef nonnull align 8 dereferenceable(8) %14)
  %15 = getelementptr inbounds nuw i8, ptr %12, i64 8
  %16 = load i64, ptr %15, align 8, !tbaa !3
  %17 = and i64 %16, 1
  %.not.i.i.i.i = icmp eq i64 %17, 0
  br i1 %.not.i.i.i.i, label %_ZN6google8protobuf8internal18GenericTypeHandlerIN17opencv_tensorflow11GradientDefEE5ClearEPS4_.exit.i.i, label %18

18:                                               ; preds = %10
  tail call void @_ZN6google8protobuf8internal16InternalMetadata7DoClearINS0_15UnknownFieldSetEEEvv(ptr noundef nonnull align 8 dereferenceable(8) %15)
  br label %_ZN6google8protobuf8internal18GenericTypeHandlerIN17opencv_tensorflow11GradientDefEE5ClearEPS4_.exit.i.i

_ZN6google8protobuf8internal18GenericTypeHandlerIN17opencv_tensorflow11GradientDefEE5ClearEPS4_.exit.i.i: ; preds = %18, %10
  %exitcond.not.i.i = icmp eq i64 %indvars.iv.next.i.i, %wide.trip.count.i.i
  br i1 %exitcond.not.i.i, label %19, label %10, !llvm.loop !26

19:                                               ; preds = %_ZN6google8protobuf8internal18GenericTypeHandlerIN17opencv_tensorflow11GradientDefEE5ClearEPS4_.exit.i.i
  store i32 0, ptr %3, align 8, !tbaa !20
  br label %_ZN6google8protobuf16RepeatedPtrFieldIN17opencv_tensorflow11GradientDefEE5ClearEv.exit

_ZN6google8protobuf16RepeatedPtrFieldIN17opencv_tensorflow11GradientDefEE5ClearEv.exit: ; preds = %1, %19
  %20 = getelementptr inbounds nuw i8, ptr %0, i64 8
  %21 = load i64, ptr %20, align 8, !tbaa !3
  %22 = and i64 %21, 1
  %.not = icmp eq i64 %22, 0
  br i1 %.not, label %_ZN6google8protobuf8internal16InternalMetadata5ClearINS0_15UnknownFieldSetEEEvv.exit, label %23

23:                                               ; preds = %_ZN6google8protobuf16RepeatedPtrFieldIN17opencv_tensorflow11GradientDefEE5ClearEv.exit
  tail call void @_ZN6google8protobuf8internal16InternalMetadata7DoClearINS0_15UnknownFieldSetEEEvv(ptr noundef nonnull align 8 dereferenceable(8) %20)
  br label %_ZN6google8protobuf8internal16InternalMetadata5ClearINS0_15UnknownFieldSetEEEvv.exit

_ZN6google8protobuf8internal16InternalMetadata5ClearINS0_15UnknownFieldSetEEEvv.exit: ; preds = %_ZN6google8protobuf16RepeatedPtrFieldIN17opencv_tensorflow11GradientDefEE5ClearEv.exit, %23
  ret void
}